target datalayout = "e-m:e-p270:32:32-p271:32:32-p272:64:64-i64:64-i128:128-f80:128-n8:16:32:64-S128"
target triple = "x86_64-pc-linux-gnu"

; Function Attrs: nounwind uwtable
define internal ptr @encode_locale(ptr noundef %0, ptr noundef %1, i32 noundef %2, i32 noundef %3) #0 {
  %5 = alloca ptr, align 8
  %6 = alloca ptr, align 8
  %7 = alloca ptr, align 8
  %8 = alloca i32, align 4
  %9 = alloca i32, align 4
  %10 = alloca ptr, align 8
  %11 = alloca i32, align 4
  %12 = alloca i32, align 4
  store ptr %0, ptr %6, align 8, !tbaa !177
  store ptr %1, ptr %7, align 8, !tbaa !189
  store i32 %2, ptr %8, align 4, !tbaa !4
  store i32 %3, ptr %9, align 4, !tbaa !4
  call void @llvm.lifetime.start.p0(i64 8, ptr %10) #10
  call void @llvm.lifetime.start.p0(i64 4, ptr %11) #10
  %13 = load ptr, ptr %6, align 8, !tbaa !177
  %14 = load ptr, ptr %7, align 8, !tbaa !189
  %15 = load i32, ptr %8, align 4, !tbaa !4
  %16 = load i32, ptr %9, align 4, !tbaa !4
  %17 = call i32 @encode_locale_ex(ptr noundef %13, ptr noundef %10, ptr noundef %14, ptr noundef null, i32 noundef %15, i32 noundef %16, i32 noundef 2)
  store i32 %17, ptr %11, align 4, !tbaa !4
  %18 = load i32, ptr %11, align 4, !tbaa !4
  %19 = icmp ne i32 %18, -2
  br i1 %19, label %20, label %25

20:                                               ; preds = %4
  %21 = load ptr, ptr %7, align 8, !tbaa !189
  %22 = icmp ne ptr %21, null
  br i1 %22, label %23, label %25

23:                                               ; preds = %20
  %24 = load ptr, ptr %7, align 8, !tbaa !189
  store i64 -1, ptr %24, align 8, !tbaa !186
  br label %25

25:                                               ; preds = %23, %20, %4
  %26 = load i32, ptr %11, align 4, !tbaa !4
  %27 = icmp ne i32 %26, 0
  br i1 %27, label %28, label %29

28:                                               ; preds = %25
  store ptr null, ptr %5, align 8
  store i32 1, ptr %12, align 4
  br label %31

29:                                               ; preds = %25
  %30 = load ptr, ptr %10, align 8, !tbaa !180
  store ptr %30, ptr %5, align 8
  store i32 1, ptr %12, align 4
  br label %31

31:                                               ; preds = %29, %28
  call void @llvm.lifetime.end.p0(i64 4, ptr %11) #10
  call void @llvm.lifetime.end.p0(i64 8, ptr %10) #10
  %32 = load ptr, ptr %5, align 8
  ret ptr %32
}

; Function Attrs: nounwind uwtable
define dso_local ptr @Py_EncodeLocale(ptr noundef %0, ptr noundef %1) #0 {
  %3 = alloca ptr, align 8
  %4 = alloca ptr, align 8
  store ptr %0, ptr %3, align 8, !tbaa !177
  store ptr %1, ptr %4, align 8, !tbaa !189
  %5 = load ptr, ptr %3, align 8, !tbaa !177
  %6 = load ptr, ptr %4, align 8, !tbaa !189
  %7 = call ptr @encode_locale(ptr noundef %5, ptr noundef %6, i32 noundef 0, i32 noundef 0)
  ret ptr %7
}