; Function Attrs: nounwind uwtable
define dso_local ptr @Py_EncodeLocale(ptr noundef %0, ptr noundef %1) local_unnamed_addr #0 {
  %3 = alloca ptr, align 8
  call void @llvm.lifetime.start.p0(i64 8, ptr nonnull %3) #17
  %4 = call fastcc i32 @encode_locale_ex(ptr noundef %0, ptr noundef nonnull %3, ptr noundef %1, ptr noundef null, i32 noundef 0, i32 noundef 0, i32 noundef 2)
  %5 = icmp ne i32 %4, -2
  %6 = icmp ne ptr %1, null
  %or.cond.i = and i1 %6, %5
  br i1 %or.cond.i, label %7, label %encode_locale.exit

7:                                                ; preds = %2
  store i64 -1, ptr %1, align 8, !tbaa !183
  br label %encode_locale.exit

encode_locale.exit:                               ; preds = %2, %7
  %.not.i = icmp eq i32 %4, 0
  %8 = load ptr, ptr %3, align 8
  %.0.i = select i1 %.not.i, ptr %8, ptr null
  call void @llvm.lifetime.end.p0(i64 8, ptr nonnull %3) #17
  ret ptr %.0.i
}